target datalayout = "e-m:e-p270:32:32-p271:32:32-p272:64:64-i64:64-i128:128-f80:128-n8:16:32:64-S128"
target triple = "x86_64-pc-linux-gnu"

; Function Attrs: nounwind uwtable
define void @ff_get_matrix(float noundef %0, float noundef %1, float noundef %2, float noundef %3, float noundef %4, ptr noundef %5) #0 {
  %7 = alloca float, align 4
  %8 = alloca float, align 4
  %9 = alloca float, align 4
  %10 = alloca float, align 4
  %11 = alloca float, align 4
  %12 = alloca ptr, align 8
  store float %0, ptr %7, align 4, !tbaa !4
  store float %1, ptr %8, align 4, !tbaa !4
  store float %2, ptr %9, align 4, !tbaa !4
  store float %3, ptr %10, align 4, !tbaa !4
  store float %4, ptr %11, align 4, !tbaa !4
  store ptr %5, ptr %12, align 8, !tbaa !8
  %13 = load float, ptr %10, align 4, !tbaa !4
  %14 = fpext nsz float %13 to double
  %15 = load float, ptr %9, align 4, !tbaa !4
  %16 = fpext nsz float %15 to double
  %17 = call nsz double @llvm.cos.f64(double %16)
  %18 = fmul nsz double %14, %17
  %19 = fptrunc nsz double %18 to float
  %20 = load ptr, ptr %12, align 8, !tbaa !8
  %21 = getelementptr inbounds float, ptr %20, i64 0
  store float %19, ptr %21, align 4, !tbaa !4
  %22 = load float, ptr %9, align 4, !tbaa !4
  %23 = fpext nsz float %22 to double
  %24 = call nsz double @llvm.sin.f64(double %23)
  %25 = fneg nsz double %24
  %26 = fptrunc nsz double %25 to float
  %27 = load ptr, ptr %12, align 8, !tbaa !8
  %28 = getelementptr inbounds float, ptr %27, i64 1
  store float %26, ptr %28, align 4, !tbaa !4
  %29 = load float, ptr %7, align 4, !tbaa !4
  %30 = load ptr, ptr %12, align 8, !tbaa !8
  %31 = getelementptr inbounds float, ptr %30, i64 2
  store float %29, ptr %31, align 4, !tbaa !4
  %32 = load ptr, ptr %12, align 8, !tbaa !8
  %33 = getelementptr inbounds float, ptr %32, i64 1
  %34 = load float, ptr %33, align 4, !tbaa !4
  %35 = fneg nsz float %34
  %36 = load ptr, ptr %12, align 8, !tbaa !8
  %37 = getelementptr inbounds float, ptr %36, i64 3
  store float %35, ptr %37, align 4, !tbaa !4
  %38 = load float, ptr %11, align 4, !tbaa !4
  %39 = fpext nsz float %38 to double
  %40 = load float, ptr %9, align 4, !tbaa !4
  %41 = fpext nsz float %40 to double
  %42 = call nsz double @llvm.cos.f64(double %41)
  %43 = fmul nsz double %39, %42
  %44 = fptrunc nsz double %43 to float
  %45 = load ptr, ptr %12, align 8, !tbaa !8
  %46 = getelementptr inbounds float, ptr %45, i64 4
  store float %44, ptr %46, align 4, !tbaa !4
  %47 = load float, ptr %8, align 4, !tbaa !4
  %48 = load ptr, ptr %12, align 8, !tbaa !8
  %49 = getelementptr inbounds float, ptr %48, i64 5
  store float %47, ptr %49, align 4, !tbaa !4
  %50 = load ptr, ptr %12, align 8, !tbaa !8
  %51 = getelementptr inbounds float, ptr %50, i64 6
  store float 0.000000e+00, ptr %51, align 4, !tbaa !4
  %52 = load ptr, ptr %12, align 8, !tbaa !8
  %53 = getelementptr inbounds float, ptr %52, i64 7
  store float 0.000000e+00, ptr %53, align 4, !tbaa !4
  %54 = load ptr, ptr %12, align 8, !tbaa !8
  %55 = getelementptr inbounds float, ptr %54, i64 8
  store float 1.000000e+00, ptr %55, align 4, !tbaa !4
  ret void
}