; Function Attrs: mustprogress nofree norecurse nosync nounwind willreturn memory(argmem: write) uwtable
define void @ff_get_matrix(float noundef %0, float noundef %1, float noundef %2, float noundef %3, float noundef %4, ptr noundef writeonly captures(none) initializes((0, 36)) %5) local_unnamed_addr #0 {
  %7 = fpext nsz float %3 to double
  %8 = fpext nsz float %2 to double
  %9 = tail call nsz double @llvm.cos.f64(double %8)
  %10 = fmul nsz double %9, %7
  %11 = fptrunc nsz double %10 to float
  store float %11, ptr %5, align 4, !tbaa !4
  %12 = tail call nsz double @llvm.sin.f64(double %8)
  %13 = fptrunc nsz double %12 to float
  %14 = fneg nsz float %13
  %15 = getelementptr inbounds nuw i8, ptr %5, i64 4
  store float %14, ptr %15, align 4, !tbaa !4
  %16 = getelementptr inbounds nuw i8, ptr %5, i64 8
  store float %0, ptr %16, align 4, !tbaa !4
  %17 = getelementptr inbounds nuw i8, ptr %5, i64 12
  store float %13, ptr %17, align 4, !tbaa !4
  %18 = fpext nsz float %4 to double
  %19 = fmul nsz double %9, %18
  %20 = fptrunc nsz double %19 to float
  %21 = getelementptr inbounds nuw i8, ptr %5, i64 16
  store float %20, ptr %21, align 4, !tbaa !4
  %22 = getelementptr inbounds nuw i8, ptr %5, i64 20
  store float %1, ptr %22, align 4, !tbaa !4
  %23 = getelementptr inbounds nuw i8, ptr %5, i64 24
  store float 0.000000e+00, ptr %23, align 4, !tbaa !4
  %24 = getelementptr inbounds nuw i8, ptr %5, i64 28
  store float 0.000000e+00, ptr %24, align 4, !tbaa !4
  %25 = getelementptr inbounds nuw i8, ptr %5, i64 32
  store float 1.000000e+00, ptr %25, align 4, !tbaa !4
  ret void
}